target datalayout = "e-m:e-p270:32:32-p271:32:32-p272:64:64-i64:64-i128:128-f80:128-n8:16:32:64-S128"
target triple = "x86_64-pc-linux-gnu"

@.str.2 = private unnamed_addr constant [2 x i8] c",\00", align 1
@.str.404 = private unnamed_addr constant [5 x i8] c"none\00", align 1
@.str.405 = private unnamed_addr constant [33 x i8] c"enforce: output buffer too small\00", align 1
@.str.406 = private unnamed_addr constant [13 x i8] c"associations\00", align 1
@.str.407 = private unnamed_addr constant [7 x i8] c"limits\00", align 1
@.str.408 = private unnamed_addr constant [7 x i8] c"nojobs\00", align 1
@.str.409 = private unnamed_addr constant [8 x i8] c"nosteps\00", align 1
@.str.410 = private unnamed_addr constant [4 x i8] c"qos\00", align 1
@.str.411 = private unnamed_addr constant [5 x i8] c"safe\00", align 1
@.str.412 = private unnamed_addr constant [7 x i8] c"wckeys\00", align 1

; Function Attrs: nounwind uwtable
define dso_local void @accounting_enforce_string(i16 noundef zeroext %0, ptr noundef %1, i32 noundef %2) #0 {
  %4 = alloca i16, align 2
  %5 = alloca ptr, align 8
  %6 = alloca i32, align 4
  store i16 %0, ptr %4, align 2
  store ptr %1, ptr %5, align 8
  store i32 %2, ptr %6, align 4
  %7 = load i32, ptr %6, align 4
  %8 = icmp sgt i32 %7, 0
  br i1 %8, label %9, label %12

9:                                                ; preds = %3
  %10 = load ptr, ptr %5, align 8
  %11 = getelementptr inbounds i8, ptr %10, i64 0
  store i8 0, ptr %11, align 1
  br label %12

12:                                               ; preds = %9, %3
  %13 = load i32, ptr %6, align 4
  %14 = icmp slt i32 %13, 50
  br i1 %14, label %15, label %17

15:                                               ; preds = %12
  %16 = call i32 (ptr, ...) @error(ptr noundef @.str.405)
  br label %138

17:                                               ; preds = %12
  %18 = load i16, ptr %4, align 2
  %19 = zext i16 %18 to i64
  %20 = and i64 %19, 1
  %21 = icmp ne i64 %20, 0
  br i1 %21, label %22, label %33

22:                                               ; preds = %17
  %23 = load ptr, ptr %5, align 8
  %24 = getelementptr inbounds i8, ptr %23, i64 0
  %25 = load i8, ptr %24, align 1
  %26 = icmp ne i8 %25, 0
  br i1 %26, label %27, label %30

27:                                               ; preds = %22
  %28 = load ptr, ptr %5, align 8
  %29 = call ptr @strcat(ptr noundef %28, ptr noundef @.str.2) #11
  br label %30

30:                                               ; preds = %27, %22
  %31 = load ptr, ptr %5, align 8
  %32 = call ptr @strcat(ptr noundef %31, ptr noundef @.str.406) #11
  br label %33

33:                                               ; preds = %30, %17
  %34 = load i16, ptr %4, align 2
  %35 = zext i16 %34 to i64
  %36 = and i64 %35, 2
  %37 = icmp ne i64 %36, 0
  br i1 %37, label %38, label %49

38:                                               ; preds = %33
  %39 = load ptr, ptr %5, align 8
  %40 = getelementptr inbounds i8, ptr %39, i64 0
  %41 = load i8, ptr %40, align 1
  %42 = icmp ne i8 %41, 0
  br i1 %42, label %43, label %46

43:                                               ; preds = %38
  %44 = load ptr, ptr %5, align 8
  %45 = call ptr @strcat(ptr noundef %44, ptr noundef @.str.2) #11
  br label %46

46:                                               ; preds = %43, %38
  %47 = load ptr, ptr %5, align 8
  %48 = call ptr @strcat(ptr noundef %47, ptr noundef @.str.407) #11
  br label %49

49:                                               ; preds = %46, %33
  %50 = load i16, ptr %4, align 2
  %51 = zext i16 %50 to i64
  %52 = and i64 %51, 32
  %53 = icmp ne i64 %52, 0
  br i1 %53, label %54, label %65

54:                                               ; preds = %49
  %55 = load ptr, ptr %5, align 8
  %56 = getelementptr inbounds i8, ptr %55, i64 0
  %57 = load i8, ptr %56, align 1
  %58 = icmp ne i8 %57, 0
  br i1 %58, label %59, label %62

59:                                               ; preds = %54
  %60 = load ptr, ptr %5, align 8
  %61 = call ptr @strcat(ptr noundef %60, ptr noundef @.str.2) #11
  br label %62

62:                                               ; preds = %59, %54
  %63 = load ptr, ptr %5, align 8
  %64 = call ptr @strcat(ptr noundef %63, ptr noundef @.str.408) #11
  br label %65

65:                                               ; preds = %62, %49
  %66 = load i16, ptr %4, align 2
  %67 = zext i16 %66 to i64
  %68 = and i64 %67, 64
  %69 = icmp ne i64 %68, 0
  br i1 %69, label %70, label %81

70:                                               ; preds = %65
  %71 = load ptr, ptr %5, align 8
  %72 = getelementptr inbounds i8, ptr %71, i64 0
  %73 = load i8, ptr %72, align 1
  %74 = icmp ne i8 %73, 0
  br i1 %74, label %75, label %78

75:                                               ; preds = %70
  %76 = load ptr, ptr %5, align 8
  %77 = call ptr @strcat(ptr noundef %76, ptr noundef @.str.2) #11
  br label %78

78:                                               ; preds = %75, %70
  %79 = load ptr, ptr %5, align 8
  %80 = call ptr @strcat(ptr noundef %79, ptr noundef @.str.409) #11
  br label %81

81:                                               ; preds = %78, %65
  %82 = load i16, ptr %4, align 2
  %83 = zext i16 %82 to i64
  %84 = and i64 %83, 8
  %85 = icmp ne i64 %84, 0
  br i1 %85, label %86, label %97

86:                                               ; preds = %81
  %87 = load ptr, ptr %5, align 8
  %88 = getelementptr inbounds i8, ptr %87, i64 0
  %89 = load i8, ptr %88, align 1
  %90 = icmp ne i8 %89, 0
  br i1 %90, label %91, label %94

91:                                               ; preds = %86
  %92 = load ptr, ptr %5, align 8
  %93 = call ptr @strcat(ptr noundef %92, ptr noundef @.str.2) #11
  br label %94

94:                                               ; preds = %91, %86
  %95 = load ptr, ptr %5, align 8
  %96 = call ptr @strcat(ptr noundef %95, ptr noundef @.str.410) #11
  br label %97

97:                                               ; preds = %94, %81
  %98 = load i16, ptr %4, align 2
  %99 = zext i16 %98 to i64
  %100 = and i64 %99, 16
  %101 = icmp ne i64 %100, 0
  br i1 %101, label %102, label %113

102:                                              ; preds = %97
  %103 = load ptr, ptr %5, align 8
  %104 = getelementptr inbounds i8, ptr %103, i64 0
  %105 = load i8, ptr %104, align 1
  %106 = icmp ne i8 %105, 0
  br i1 %106, label %107, label %110

107:                                              ; preds = %102
  %108 = load ptr, ptr %5, align 8
  %109 = call ptr @strcat(ptr noundef %108, ptr noundef @.str.2) #11
  br label %110

110:                                              ; preds = %107, %102
  %111 = load ptr, ptr %5, align 8
  %112 = call ptr @strcat(ptr noundef %111, ptr noundef @.str.411) #11
  br label %113

113:                                              ; preds = %110, %97
  %114 = load i16, ptr %4, align 2
  %115 = zext i16 %114 to i64
  %116 = and i64 %115, 4
  %117 = icmp ne i64 %116, 0
  br i1 %117, label %118, label %129

118:                                              ; preds = %113
  %119 = load ptr, ptr %5, align 8
  %120 = getelementptr inbounds i8, ptr %119, i64 0
  %121 = load i8, ptr %120, align 1
  %122 = icmp ne i8 %121, 0
  br i1 %122, label %123, label %126

123:                                              ; preds = %118
  %124 = load ptr, ptr %5, align 8
  %125 = call ptr @strcat(ptr noundef %124, ptr noundef @.str.2) #11
  br label %126

126:                                              ; preds = %123, %118
  %127 = load ptr, ptr %5, align 8
  %128 = call ptr @strcat(ptr noundef %127, ptr noundef @.str.412) #11
  br label %129

129:                                              ; preds = %126, %113
  %130 = load ptr, ptr %5, align 8
  %131 = getelementptr inbounds i8, ptr %130, i64 0
  %132 = load i8, ptr %131, align 1
  %133 = sext i8 %132 to i32
  %134 = icmp eq i32 %133, 0
  br i1 %134, label %135, label %138

135:                                              ; preds = %129
  %136 = load ptr, ptr %5, align 8
  %137 = call ptr @strcat(ptr noundef %136, ptr noundef @.str.404) #11
  br label %138

138:                                              ; preds = %15, %135, %129
  ret void
}