; Function Attrs: nounwind uwtable
define dso_local void @accounting_enforce_string(i16 noundef zeroext %0, ptr noundef captures(none) %1, i32 noundef %2) #1 {
  %4 = icmp sgt i32 %2, 0
  br i1 %4, label %5, label %.thread

5:                                                ; preds = %3
  store i8 0, ptr %1, align 1
  %6 = icmp samesign ult i32 %2, 50
  br i1 %6, label %.thread, label %8

.thread:                                          ; preds = %3, %5
  %7 = tail call i32 (ptr, ...) @error(ptr noundef nonnull @.str.405) #24
  br label %44

8:                                                ; preds = %5
  %9 = zext i16 %0 to i64
  %10 = and i64 %9, 1
  %.not = icmp eq i64 %10, 0
  br i1 %.not, label %.thread85, label %11

11:                                               ; preds = %8
  %strlen33 = tail call i64 @strlen(ptr nonnull dereferenceable(1) %1)
  %endptr34 = getelementptr inbounds i8, ptr %1, i64 %strlen33
  tail call void @llvm.memcpy.p0.p0.i64(ptr noundef nonnull align 1 dereferenceable(13) %endptr34, ptr noundef nonnull align 1 dereferenceable(13) @.str.406, i64 13, i1 false)
  %.pre73.pre74.pre76.pre78.pre80.pre82.pre = load i8, ptr %1, align 1
  %12 = and i64 %9, 2
  %.not35 = icmp eq i64 %12, 0
  br i1 %.not35, label %16, label %14

.thread85:                                        ; preds = %8
  %13 = and i64 %9, 2
  %.not3587 = icmp eq i64 %13, 0
  br i1 %.not3587, label %.thread92, label %.thread89

14:                                               ; preds = %11
  %.not36 = icmp eq i8 %.pre73.pre74.pre76.pre78.pre80.pre82.pre, 0
  br i1 %.not36, label %.thread89, label %15

15:                                               ; preds = %14
  %strlen37 = tail call i64 @strlen(ptr nonnull dereferenceable(1) %1)
  %endptr38 = getelementptr inbounds i8, ptr %1, i64 %strlen37
  store i16 44, ptr %endptr38, align 1
  br label %.thread89

.thread89:                                        ; preds = %.thread85, %15, %14
  %strlen39 = tail call i64 @strlen(ptr nonnull dereferenceable(1) %1)
  %endptr40 = getelementptr inbounds i8, ptr %1, i64 %strlen39
  tail call void @llvm.memcpy.p0.p0.i64(ptr noundef nonnull align 1 dereferenceable(7) %endptr40, ptr noundef nonnull align 1 dereferenceable(7) @.str.407, i64 7, i1 false)
  %.pre73.pre74.pre76.pre78.pre80.pre = load i8, ptr %1, align 1
  br label %16

16:                                               ; preds = %.thread89, %11
  %.pre73.pre74.pre76.pre78.pre80 = phi i8 [ %.pre73.pre74.pre76.pre78.pre80.pre, %.thread89 ], [ %.pre73.pre74.pre76.pre78.pre80.pre82.pre, %11 ]
  %17 = and i64 %9, 32
  %.not41 = icmp eq i64 %17, 0
  br i1 %.not41, label %21, label %19

.thread92:                                        ; preds = %.thread85
  %18 = and i64 %9, 32
  %.not4194 = icmp eq i64 %18, 0
  br i1 %.not4194, label %.thread99, label %.thread96

19:                                               ; preds = %16
  %.not42 = icmp eq i8 %.pre73.pre74.pre76.pre78.pre80, 0
  br i1 %.not42, label %.thread96, label %20

20:                                               ; preds = %19
  %strlen43 = tail call i64 @strlen(ptr nonnull dereferenceable(1) %1)
  %endptr44 = getelementptr inbounds i8, ptr %1, i64 %strlen43
  store i16 44, ptr %endptr44, align 1
  br label %.thread96

.thread96:                                        ; preds = %.thread92, %20, %19
  %strlen45 = tail call i64 @strlen(ptr nonnull dereferenceable(1) %1)
  %endptr46 = getelementptr inbounds i8, ptr %1, i64 %strlen45
  tail call void @llvm.memcpy.p0.p0.i64(ptr noundef nonnull align 1 dereferenceable(7) %endptr46, ptr noundef nonnull align 1 dereferenceable(7) @.str.408, i64 7, i1 false)
  %.pre73.pre74.pre76.pre78.pre = load i8, ptr %1, align 1
  br label %21

21:                                               ; preds = %.thread96, %16
  %.pre73.pre74.pre76.pre78 = phi i8 [ %.pre73.pre74.pre76.pre78.pre, %.thread96 ], [ %.pre73.pre74.pre76.pre78.pre80, %16 ]
  %22 = and i64 %9, 64
  %.not47 = icmp eq i64 %22, 0
  br i1 %.not47, label %26, label %24

.thread99:                                        ; preds = %.thread92
  %23 = and i64 %9, 64
  %.not47101 = icmp eq i64 %23, 0
  br i1 %.not47101, label %.thread106, label %.thread103

24:                                               ; preds = %21
  %.not48 = icmp eq i8 %.pre73.pre74.pre76.pre78, 0
  br i1 %.not48, label %.thread103, label %25

25:                                               ; preds = %24
  %strlen49 = tail call i64 @strlen(ptr nonnull dereferenceable(1) %1)
  %endptr50 = getelementptr inbounds i8, ptr %1, i64 %strlen49
  store i16 44, ptr %endptr50, align 1
  br label %.thread103

.thread103:                                       ; preds = %.thread99, %25, %24
  %strlen51 = tail call i64 @strlen(ptr nonnull dereferenceable(1) %1)
  %endptr52 = getelementptr inbounds i8, ptr %1, i64 %strlen51
  store i64 32493203369455470, ptr %endptr52, align 1
  %.pre73.pre74.pre76.pre = load i8, ptr %1, align 1
  br label %26

26:                                               ; preds = %.thread103, %21
  %.pre73.pre74.pre76 = phi i8 [ %.pre73.pre74.pre76.pre, %.thread103 ], [ %.pre73.pre74.pre76.pre78, %21 ]
  %27 = and i64 %9, 8
  %.not53 = icmp eq i64 %27, 0
  br i1 %.not53, label %31, label %29

.thread106:                                       ; preds = %.thread99
  %28 = and i64 %9, 8
  %.not53108 = icmp eq i64 %28, 0
  br i1 %.not53108, label %.thread113, label %.thread110

29:                                               ; preds = %26
  %.not54 = icmp eq i8 %.pre73.pre74.pre76, 0
  br i1 %.not54, label %.thread110, label %30

30:                                               ; preds = %29
  %strlen55 = tail call i64 @strlen(ptr nonnull dereferenceable(1) %1)
  %endptr56 = getelementptr inbounds i8, ptr %1, i64 %strlen55
  store i16 44, ptr %endptr56, align 1
  br label %.thread110

.thread110:                                       ; preds = %.thread106, %30, %29
  %strlen57 = tail call i64 @strlen(ptr nonnull dereferenceable(1) %1)
  %endptr58 = getelementptr inbounds i8, ptr %1, i64 %strlen57
  store i32 7565169, ptr %endptr58, align 1
  %.pre73.pre74.pre = load i8, ptr %1, align 1
  br label %31

31:                                               ; preds = %.thread110, %26
  %.pre73.pre74 = phi i8 [ %.pre73.pre74.pre, %.thread110 ], [ %.pre73.pre74.pre76, %26 ]
  %32 = and i64 %9, 16
  %.not59 = icmp eq i64 %32, 0
  br i1 %.not59, label %36, label %34

.thread113:                                       ; preds = %.thread106
  %33 = and i64 %9, 16
  %.not59115 = icmp eq i64 %33, 0
  br i1 %.not59115, label %.thread120, label %.thread117

34:                                               ; preds = %31
  %.not60 = icmp eq i8 %.pre73.pre74, 0
  br i1 %.not60, label %.thread117, label %35

35:                                               ; preds = %34
  %strlen61 = tail call i64 @strlen(ptr nonnull dereferenceable(1) %1)
  %endptr62 = getelementptr inbounds i8, ptr %1, i64 %strlen61
  store i16 44, ptr %endptr62, align 1
  br label %.thread117

.thread117:                                       ; preds = %.thread113, %35, %34
  %strlen63 = tail call i64 @strlen(ptr nonnull dereferenceable(1) %1)
  %endptr64 = getelementptr inbounds i8, ptr %1, i64 %strlen63
  tail call void @llvm.memcpy.p0.p0.i64(ptr noundef nonnull align 1 dereferenceable(5) %endptr64, ptr noundef nonnull align 1 dereferenceable(5) @.str.411, i64 5, i1 false)
  %.pre73.pre = load i8, ptr %1, align 1
  br label %36

36:                                               ; preds = %.thread117, %31
  %.pre73 = phi i8 [ %.pre73.pre, %.thread117 ], [ %.pre73.pre74, %31 ]
  %37 = and i64 %9, 4
  %.not65 = icmp eq i64 %37, 0
  br i1 %.not65, label %41, label %39

.thread120:                                       ; preds = %.thread113
  %38 = and i64 %9, 4
  %.not65122 = icmp eq i64 %38, 0
  br i1 %.not65122, label %.thread127, label %.thread124

39:                                               ; preds = %36
  %.not66 = icmp eq i8 %.pre73, 0
  br i1 %.not66, label %.thread124, label %40

40:                                               ; preds = %39
  %strlen67 = tail call i64 @strlen(ptr nonnull dereferenceable(1) %1)
  %endptr68 = getelementptr inbounds i8, ptr %1, i64 %strlen67
  store i16 44, ptr %endptr68, align 1
  br label %.thread124

.thread124:                                       ; preds = %.thread120, %40, %39
  %strlen69 = tail call i64 @strlen(ptr nonnull dereferenceable(1) %1)
  %endptr70 = getelementptr inbounds i8, ptr %1, i64 %strlen69
  tail call void @llvm.memcpy.p0.p0.i64(ptr noundef nonnull align 1 dereferenceable(7) %endptr70, ptr noundef nonnull align 1 dereferenceable(7) @.str.412, i64 7, i1 false)
  %.pre = load i8, ptr %1, align 1
  br label %41

41:                                               ; preds = %.thread124, %36
  %42 = phi i8 [ %.pre, %.thread124 ], [ %.pre73, %36 ]
  %43 = icmp eq i8 %42, 0
  br i1 %43, label %.thread127, label %44

.thread127:                                       ; preds = %.thread120, %41
  %strlen71 = tail call i64 @strlen(ptr nonnull dereferenceable(1) %1)
  %endptr72 = getelementptr inbounds i8, ptr %1, i64 %strlen71
  tail call void @llvm.memcpy.p0.p0.i64(ptr noundef nonnull align 1 dereferenceable(5) %endptr72, ptr noundef nonnull align 1 dereferenceable(5) @.str.404, i64 5, i1 false)
  br label %44

44:                                               ; preds = %.thread127, %41, %.thread
  ret void
}